target datalayout = "e-m:e-p270:32:32-p271:32:32-p272:64:64-i64:64-i128:128-f80:128-n8:16:32:64-S128"
target triple = "x86_64-pc-linux-gnu"

%union.pthread_attr_t = type { i64, [48 x i8] }

@.str = private unnamed_addr constant [60 x i8] c"[dt_pthread_create] error: pthread_attr_init() returned %s\0A\00", align 1
@stdout = external global ptr, align 8
@.str.1 = private unnamed_addr constant [68 x i8] c"[dt_pthread_create] error: pthread_attr_setstacksize() returned %s\0A\00", align 1
@.str.2 = private unnamed_addr constant [57 x i8] c"[dt_pthread_create] error: pthread_create() returned %s\0A\00", align 1
@.str.3 = private unnamed_addr constant [3 x i8] c"OK\00", align 1
@.str.4 = private unnamed_addr constant [6 x i8] c"EBUSY\00", align 1
@.str.5 = private unnamed_addr constant [7 x i8] c"EINVAL\00", align 1
@.str.6 = private unnamed_addr constant [7 x i8] c"EAGAIN\00", align 1
@.str.7 = private unnamed_addr constant [8 x i8] c"EDEADLK\00", align 1
@.str.8 = private unnamed_addr constant [6 x i8] c"EPERM\00", align 1
@.str.9 = private unnamed_addr constant [10 x i8] c"ETIMEDOUT\00", align 1
@.str.10 = private unnamed_addr constant [6 x i8] c"ESRCH\00", align 1
@.str.11 = private unnamed_addr constant [7 x i8] c"ENOMEM\00", align 1
@.str.12 = private unnamed_addr constant [11 x i8] c"EOWNERDEAD\00", align 1
@.str.13 = private unnamed_addr constant [10 x i8] c"ECANCELED\00", align 1
@.str.14 = private unnamed_addr constant [16 x i8] c"ENOTRECOVERABLE\00", align 1
@.str.15 = private unnamed_addr constant [8 x i8] c"ERFKILL\00", align 1
@.str.16 = private unnamed_addr constant [10 x i8] c"EHWPOISON\00", align 1
@.str.17 = private unnamed_addr constant [4 x i8] c"???\00", align 1

; Function Attrs: nounwind uwtable
define i32 @dt_pthread_create(ptr noundef %0, ptr noundef %1, ptr noundef %2) #0 {
  %4 = alloca ptr, align 8
  %5 = alloca ptr, align 8
  %6 = alloca ptr, align 8
  %7 = alloca i32, align 4
  %8 = alloca %union.pthread_attr_t, align 8
  %9 = alloca i64, align 8
  store ptr %0, ptr %4, align 8, !tbaa !6
  store ptr %1, ptr %5, align 8, !tbaa !11
  store ptr %2, ptr %6, align 8, !tbaa !11
  call void @llvm.lifetime.start.p0(i64 4, ptr %7) #6
  store i32 0, ptr %7, align 4, !tbaa !12
  call void @llvm.lifetime.start.p0(i64 56, ptr %8) #6
  %10 = call i32 @pthread_attr_init(ptr noundef %8) #6
  store i32 %10, ptr %7, align 4, !tbaa !12
  %11 = load i32, ptr %7, align 4, !tbaa !12
  %12 = icmp ne i32 %11, 0
  br i1 %12, label %13, label %19

13:                                               ; preds = %3
  %14 = load i32, ptr %7, align 4, !tbaa !12
  %15 = call ptr @_pthread_ret_mess(i32 noundef %14)
  %16 = call i32 (ptr, ...) @printf(ptr noundef @.str, ptr noundef %15)
  %17 = load ptr, ptr @stdout, align 8, !tbaa !14
  %18 = call i32 @fflush(ptr noundef %17)
  br label %19

19:                                               ; preds = %13, %3
  call void @llvm.lifetime.start.p0(i64 8, ptr %9) #6
  %20 = call i32 @pthread_attr_getstacksize(ptr noundef %8, ptr noundef %9) #6
  store i32 %20, ptr %7, align 4, !tbaa !12
  %21 = load i32, ptr %7, align 4, !tbaa !12
  %22 = icmp ne i32 %21, 0
  br i1 %22, label %26, label %23

23:                                               ; preds = %19
  %24 = load i64, ptr %9, align 8, !tbaa !16
  %25 = icmp ult i64 %24, 2097152
  br i1 %25, label %26, label %37

26:                                               ; preds = %23, %19
  %27 = call i32 @pthread_attr_setstacksize(ptr noundef %8, i64 noundef 2097152) #6
  store i32 %27, ptr %7, align 4, !tbaa !12
  %28 = load i32, ptr %7, align 4, !tbaa !12
  %29 = icmp ne i32 %28, 0
  br i1 %29, label %30, label %36

30:                                               ; preds = %26
  %31 = load i32, ptr %7, align 4, !tbaa !12
  %32 = call ptr @_pthread_ret_mess(i32 noundef %31)
  %33 = call i32 (ptr, ...) @printf(ptr noundef @.str.1, ptr noundef %32)
  %34 = load ptr, ptr @stdout, align 8, !tbaa !14
  %35 = call i32 @fflush(ptr noundef %34)
  br label %36

36:                                               ; preds = %30, %26
  br label %37

37:                                               ; preds = %36, %23
  %38 = load ptr, ptr %4, align 8, !tbaa !6
  %39 = load ptr, ptr %5, align 8, !tbaa !11
  %40 = load ptr, ptr %6, align 8, !tbaa !11
  %41 = call i32 @pthread_create(ptr noundef %38, ptr noundef %8, ptr noundef %39, ptr noundef %40) #6
  store i32 %41, ptr %7, align 4, !tbaa !12
  %42 = load i32, ptr %7, align 4, !tbaa !12
  %43 = icmp ne i32 %42, 0
  br i1 %43, label %44, label %50

44:                                               ; preds = %37
  %45 = load i32, ptr %7, align 4, !tbaa !12
  %46 = call ptr @_pthread_ret_mess(i32 noundef %45)
  %47 = call i32 (ptr, ...) @printf(ptr noundef @.str.2, ptr noundef %46)
  %48 = load ptr, ptr @stdout, align 8, !tbaa !14
  %49 = call i32 @fflush(ptr noundef %48)
  br label %50

50:                                               ; preds = %44, %37
  %51 = call i32 @pthread_attr_destroy(ptr noundef %8) #6
  %52 = load i32, ptr %7, align 4, !tbaa !12
  call void @llvm.lifetime.end.p0(i64 8, ptr %9) #6
  call void @llvm.lifetime.end.p0(i64 56, ptr %8) #6
  call void @llvm.lifetime.end.p0(i64 4, ptr %7) #6
  ret i32 %52
}

; Function Attrs: nocallback nofree nosync nounwind willreturn memory(argmem: readwrite)
declare void @llvm.lifetime.start.p0(i64 immarg, ptr captures(none)) #1

; Function Attrs: nounwind
declare i32 @pthread_attr_init(ptr noundef) #2

declare i32 @printf(ptr noundef, ...) #3

; Function Attrs: inlinehint nounwind uwtable
define internal ptr @_pthread_ret_mess(i32 noundef %0) #4 {
  %2 = alloca ptr, align 8
  %3 = alloca i32, align 4
  store i32 %0, ptr %3, align 4, !tbaa !12
  %4 = load i32, ptr %3, align 4, !tbaa !12
  switch i32 %4, label %19 [
    i32 0, label %5
    i32 16, label %6
    i32 22, label %7
    i32 11, label %8
    i32 35, label %9
    i32 1, label %10
    i32 110, label %11
    i32 3, label %12
    i32 12, label %13
    i32 130, label %14
    i32 125, label %15
    i32 131, label %16
    i32 132, label %17
    i32 133, label %18
  ]

5:                                                ; preds = %1
  store ptr @.str.3, ptr %2, align 8
  br label %20

6:                                                ; preds = %1
  store ptr @.str.4, ptr %2, align 8
  br label %20

7:                                                ; preds = %1
  store ptr @.str.5, ptr %2, align 8
  br label %20

8:                                                ; preds = %1
  store ptr @.str.6, ptr %2, align 8
  br label %20

9:                                                ; preds = %1
  store ptr @.str.7, ptr %2, align 8
  br label %20

10:                                               ; preds = %1
  store ptr @.str.8, ptr %2, align 8
  br label %20

11:                                               ; preds = %1
  store ptr @.str.9, ptr %2, align 8
  br label %20

12:                                               ; preds = %1
  store ptr @.str.10, ptr %2, align 8
  br label %20

13:                                               ; preds = %1
  store ptr @.str.11, ptr %2, align 8
  br label %20

14:                                               ; preds = %1
  store ptr @.str.12, ptr %2, align 8
  br label %20

15:                                               ; preds = %1
  store ptr @.str.13, ptr %2, align 8
  br label %20

16:                                               ; preds = %1
  store ptr @.str.14, ptr %2, align 8
  br label %20

17:                                               ; preds = %1
  store ptr @.str.15, ptr %2, align 8
  br label %20

18:                                               ; preds = %1
  store ptr @.str.16, ptr %2, align 8
  br label %20

19:                                               ; preds = %1
  store ptr @.str.17, ptr %2, align 8
  br label %20

20:                                               ; preds = %19, %18, %17, %16, %15, %14, %13, %12, %11, %10, %9, %8, %7, %6, %5
  %21 = load ptr, ptr %2, align 8
  ret ptr %21
}

declare i32 @fflush(ptr noundef) #3

; Function Attrs: nounwind
declare i32 @pthread_attr_getstacksize(ptr noundef, ptr noundef) #2

; Function Attrs: nounwind
declare i32 @pthread_attr_setstacksize(ptr noundef, i64 noundef) #2

; Function Attrs: nounwind
declare i32 @pthread_create(ptr noundef, ptr noundef, ptr noundef, ptr noundef) #2

; Function Attrs: nounwind
declare i32 @pthread_attr_destroy(ptr noundef) #2

; Function Attrs: nocallback nofree nosync nounwind willreturn memory(argmem: readwrite)
declare void @llvm.lifetime.end.p0(i64 immarg, ptr captures(none)) #1

; Function Attrs: nounwind uwtable
define i32 @dt_pthread_join(i64 noundef %0) #0 {
  %2 = alloca i64, align 8
  %3 = alloca i32, align 4
  store i64 %0, ptr %2, align 8, !tbaa !16
  call void @llvm.lifetime.start.p0(i64 4, ptr %3) #6
  %4 = load i64, ptr %2, align 8, !tbaa !16
  %5 = call i32 @pthread_join(i64 noundef %4, ptr noundef null)
  store i32 %5, ptr %3, align 4, !tbaa !12
  %6 = load i32, ptr %3, align 4, !tbaa !12
  call void @llvm.lifetime.end.p0(i64 4, ptr %3) #6
  ret i32 %6
}

declare i32 @pthread_join(i64 noundef, ptr noundef) #3

; Function Attrs: nounwind uwtable
define void @dt_pthread_setname(ptr noundef %0) #0 {
  %2 = alloca ptr, align 8
  store ptr %0, ptr %2, align 8, !tbaa !18
  %3 = call i64 @pthread_self() #7
  %4 = load ptr, ptr %2, align 8, !tbaa !18
  %5 = call i32 @pthread_setname_np(i64 noundef %3, ptr noundef %4) #6
  ret void
}

; Function Attrs: nounwind
declare i32 @pthread_setname_np(i64 noundef, ptr noundef) #2

; Function Attrs: nounwind willreturn memory(none)
declare i64 @pthread_self() #5


!llvm.module.flags = !{!0, !1, !2, !3, !4, !5}

!0 = !{i32 7, !"Dwarf Version", i32 5}
!1 = !{i32 2, !"Debug Info Version", i32 3}
!2 = !{i32 1, !"wchar_size", i32 4}
!3 = !{i32 8, !"PIC Level", i32 2}
!4 = !{i32 7, !"uwtable", i32 2}
!5 = !{i32 7, !"debug-info-assignment-tracking", i1 true}
!6 = !{!7, !7, i64 0}
!7 = !{!"p1 long", !8, i64 0}
!8 = !{!"any pointer", !9, i64 0}
!9 = !{!"omnipotent char", !10, i64 0}
!10 = !{!"Simple C/C++ TBAA"}
!11 = !{!8, !8, i64 0}
!12 = !{!13, !13, i64 0}
!13 = !{!"int", !9, i64 0}
!14 = !{!15, !15, i64 0}
!15 = !{!"p1 _ZTS8_IO_FILE", !8, i64 0}
!16 = !{!17, !17, i64 0}
!17 = !{!"long", !9, i64 0}
!18 = !{!19, !19, i64 0}
!19 = !{!"p1 omnipotent char", !8, i64 0}
